Certificate:
    Data:
        Version: 3 (0x2)
        Serial Number: 1 (0x1)
    Signature Algorithm: sha256WithRSAEncryption
        Issuer: C=FR, ST=Isere, L=Grenoble, O=GWT, OU=GWT_R&D, CN=GWT CA/name=EasyRSA/emailAddress=florent.rotenberg@gmail.com
        Validity
            Not Before: Dec 12 11:45:06 2016 GMT
            Not After : Dec 10 11:45:06 2026 GMT
        Subject: C=FR, ST=Isere, L=Grenoble, O=GWT, OU=GWT_R&D, CN=server-gwt-Precision-Tower-3620/name=EasyRSA/emailAddress=florent.rotenberg@gmail.com
        Subject Public Key Info:
            Public Key Algorithm: rsaEncryption
                Public-Key: (2048 bit)
                Modulus:
                    00:cb:0d:42:83:09:e3:61:6c:c6:05:ce:c6:dc:4e:
                    e5:35:10:18:e2:93:b9:7b:64:86:66:8b:00:19:88:
                    17:3f:f4:77:80:e9:ab:6c:2d:7f:12:d9:47:a3:b9:
                    35:b9:f3:b9:1f:19:ff:20:ea:6a:f6:b8:70:66:64:
                    e2:00:71:d7:41:62:9e:78:4e:a6:34:2b:00:b1:75:
                    59:19:15:18:9e:c8:53:02:f9:8a:c7:29:1a:37:5d:
                    3d:78:f3:48:92:2c:0e:16:7b:83:d4:41:71:03:aa:
                    f6:ad:6f:4d:6a:77:62:a9:4c:74:23:2a:d1:42:38:
                    b5:f4:35:ed:a7:98:bd:8a:14:b9:a7:82:dd:b8:d3:
                    a2:d3:be:a0:a7:21:1c:a3:68:99:31:7d:9d:ea:cb:
                    58:ad:20:40:90:c0:20:9a:6b:6a:dc:60:9b:09:a0:
                    51:1a:02:d2:13:36:7e:69:82:5e:c5:ca:4c:f0:9b:
                    07:52:ea:b6:81:a2:1d:c0:25:0d:d5:aa:32:c7:9d:
                    0f:f4:c6:28:0c:2f:eb:0a:a4:46:01:1c:23:05:a6:
                    eb:9e:13:b0:e1:35:bb:92:03:ee:5d:87:e7:f2:c5:
                    34:3f:64:ea:b4:91:e8:cf:13:94:e5:8b:d3:78:5b:
                    73:a5:38:3b:34:39:9a:e6:f3:46:42:65:43:a8:44:
                    0d:8d
                Exponent: 65537 (0x10001)
        X509v3 extensions:
            X509v3 Basic Constraints: 
                CA:FALSE
            Netscape Cert Type: 
                SSL Server
            Netscape Comment: 
                Easy-RSA Generated Server Certificate
            X509v3 Subject Key Identifier: 
                B4:A5:8C:6F:4C:7E:FF:0E:9F:0E:C6:92:D4:9E:B5:87:F4:72:78:DD
            X509v3 Authority Key Identifier: 
                keyid:5C:B1:7D:A4:29:D5:20:2E:86:64:E8:CE:6F:50:CC:4C:06:EB:F6:07
                DirName:/C=FR/ST=Isere/L=Grenoble/O=GWT/OU=GWT_R&D/CN=GWT CA/name=EasyRSA/emailAddress=florent.rotenberg@gmail.com
                serial:DD:C7:09:DE:EA:27:F2:C7

            X509v3 Extended Key Usage: 
                TLS Web Server Authentication
            X509v3 Key Usage: 
                Digital Signature, Key Encipherment
            X509v3 Subject Alternative Name: 
                DNS:server-gwt-Precision-Tower-3620
    Signature Algorithm: sha256WithRSAEncryption
         7f:16:fa:97:e3:44:51:2f:40:3c:f9:51:d2:ed:2c:dc:6e:28:
         f8:02:48:bb:d7:d9:6e:df:7f:92:95:eb:31:20:b4:a1:b4:e3:
         84:36:13:f8:96:cf:e2:8b:35:a2:87:ab:5d:e7:06:66:e4:b2:
         dc:26:85:11:85:7e:e2:f4:54:36:51:9f:f5:ac:80:fd:38:b9:
         df:8a:9c:4a:77:18:0f:96:9a:ed:6f:00:ac:ae:b8:6e:dc:a5:
         b9:1b:8b:99:5b:1e:a0:63:cf:de:58:8b:09:66:62:64:e5:2e:
         8b:3b:5e:52:03:6f:4e:e8:e7:1e:c2:93:3f:e1:34:82:7c:b9:
         ad:92:b8:0a:43:f2:ac:77:a7:33:2b:77:97:bb:f9:11:44:f6:
         ad:1f:b6:42:98:0a:ef:1f:d1:55:3f:c1:ee:0c:66:1f:78:e8:
         ed:fe:b3:26:4e:8b:60:06:90:5f:c5:be:e3:bb:4c:a7:c4:a9:
         b4:86:bc:e0:01:47:c7:2e:c0:b7:51:df:3f:35:e0:ca:1f:ea:
         c6:19:04:bf:6d:24:94:2a:ad:a5:2c:19:7c:46:db:b9:04:a4:
         61:73:3e:cd:d2:51:4f:5d:81:69:bb:5b:d8:5d:a4:cc:a4:2a:
         75:49:bb:25:00:59:20:00:27:29:5a:6d:18:85:93:be:1e:7b:
         b1:75:e9:39
-----BEGIN CERTIFICATE-----
MIIFcjCCBFqgAwIBAgIBATANBgkqhkiG9w0BAQsFADCBnzELMAkGA1UEBhMCRlIx
DjAMBgNVBAgTBUlzZXJlMREwDwYDVQQHEwhHcmVub2JsZTEMMAoGA1UEChMDR1dU
MRAwDgYDVQQLFAdHV1RfUiZEMQ8wDQYDVQQDEwZHV1QgQ0ExEDAOBgNVBCkTB0Vh
c3lSU0ExKjAoBgkqhkiG9w0BCQEWG2Zsb3JlbnQucm90ZW5iZXJnQGdtYWlsLmNv
bTAeFw0xNjEyMTIxMTQ1MDZaFw0yNjEyMTAxMTQ1MDZaMIG4MQswCQYDVQQGEwJG
UjEOMAwGA1UECBMFSXNlcmUxETAPBgNVBAcTCEdyZW5vYmxlMQwwCgYDVQQKEwNH
V1QxEDAOBgNVBAsUB0dXVF9SJkQxKDAmBgNVBAMTH3NlcnZlci1nd3QtUHJlY2lz
aW9uLVRvd2VyLTM2MjAxEDAOBgNVBCkTB0Vhc3lSU0ExKjAoBgkqhkiG9w0BCQEW
G2Zsb3JlbnQucm90ZW5iZXJnQGdtYWlsLmNvbTCCASIwDQYJKoZIhvcNAQEBBQAD
ggEPADCCAQoCggEBAMsNQoMJ42FsxgXOxtxO5TUQGOKTuXtkhmaLABmIFz/0d4Dp
q2wtfxLZR6O5NbnzuR8Z/yDqava4cGZk4gBx10FinnhOpjQrALF1WRkVGJ7IUwL5
iscpGjddPXjzSJIsDhZ7g9RBcQOq9q1vTWp3YqlMdCMq0UI4tfQ17aeYvYoUuaeC
3bjTotO+oKchHKNomTF9nerLWK0gQJDAIJpratxgmwmgURoC0hM2fmmCXsXKTPCb
B1LqtoGiHcAlDdWqMsedD/TGKAwv6wqkRgEcIwWm654TsOE1u5ID7l2H5/LFND9k
6rSR6M8TlOWL03hbc6U4OzQ5mubzRkJlQ6hEDY0CAwEAAaOCAZwwggGYMAkGA1Ud
EwQCMAAwEQYJYIZIAYb4QgEBBAQDAgZAMDQGCWCGSAGG+EIBDQQnFiVFYXN5LVJT
QSBHZW5lcmF0ZWQgU2VydmVyIENlcnRpZmljYXRlMB0GA1UdDgQWBBS0pYxvTH7/
Dp8OxpLUnrWH9HJ43TCB1AYDVR0jBIHMMIHJgBRcsX2kKdUgLoZk6M5vUMxMBuv2
B6GBpaSBojCBnzELMAkGA1UEBhMCRlIxDjAMBgNVBAgTBUlzZXJlMREwDwYDVQQH
EwhHcmVub2JsZTEMMAoGA1UEChMDR1dUMRAwDgYDVQQLFAdHV1RfUiZEMQ8wDQYD
VQQDEwZHV1QgQ0ExEDAOBgNVBCkTB0Vhc3lSU0ExKjAoBgkqhkiG9w0BCQEWG2Zs
b3JlbnQucm90ZW5iZXJnQGdtYWlsLmNvbYIJAN3HCd7qJ/LHMBMGA1UdJQQMMAoG
CCsGAQUFBwMBMAsGA1UdDwQEAwIFoDAqBgNVHREEIzAhgh9zZXJ2ZXItZ3d0LVBy
ZWNpc2lvbi1Ub3dlci0zNjIwMA0GCSqGSIb3DQEBCwUAA4IBAQB/FvqX40RRL0A8
+VHS7Szcbij4Aki719lu33+SlesxILShtOOENhP4ls/iizWih6td5wZm5LLcJoUR
hX7i9FQ2UZ/1rID9OLnfipxKdxgPlprtbwCsrrhu3KW5G4uZWx6gY8/eWIsJZmJk
5S6LO15SA29O6OcewpM/4TSCfLmtkrgKQ/Ksd6czK3eXu/kRRPatH7ZCmArvH9FV
P8HuDGYfeOjt/rMmTotgBpBfxb7ju0ynxKm0hrzgAUfHLsC3Ud8/NeDKH+rGGQS/
bSSUKq2lLBl8Rtu5BKRhcz7N0lFPXYFpu1vYXaTMpCp1SbslAFkgACcpWm0YhZO+
Hnuxdek5
-----END CERTIFICATE-----
